target datalayout = "e-m:e-p270:32:32-p271:32:32-p272:64:64-i64:64-i128:128-f80:128-n8:16:32:64-S128"
target triple = "x86_64-pc-linux-gnu"

%"struct.Yosys::RTLIL::Const" = type { i16, i8, %union.anon }
%union.anon = type { %"class.std::__cxx11::basic_string" }
%"class.std::__cxx11::basic_string" = type { %"struct.std::__cxx11::basic_string<char>::_Alloc_hider", i64, %union.anon.3 }
%"struct.std::__cxx11::basic_string<char>::_Alloc_hider" = type { ptr }
%union.anon.3 = type { i64, [8 x i8] }
%"struct.std::_Vector_base" = type { %"struct.std::_Vector_base<Yosys::RTLIL::State, std::allocator<Yosys::RTLIL::State>>::_Vector_impl" }
%"struct.std::_Vector_base<Yosys::RTLIL::State, std::allocator<Yosys::RTLIL::State>>::_Vector_impl" = type { %"struct.std::_Vector_base<Yosys::RTLIL::State, std::allocator<Yosys::RTLIL::State>>::_Vector_impl_data" }
%"struct.std::_Vector_base<Yosys::RTLIL::State, std::allocator<Yosys::RTLIL::State>>::_Vector_impl_data" = type { ptr, ptr, ptr }

; Function Attrs: mustprogress nounwind uwtable
define linkonce_odr noundef nonnull align 1 dereferenceable(1) ptr @_ZNSt6vectorIN5Yosys5RTLIL5StateESaIS2_EEixEm(ptr noundef nonnull align 8 dereferenceable(24) %0, i64 noundef %1) #6 comdat align 2 {
  %3 = alloca ptr, align 8
  %4 = alloca i64, align 8
  store ptr %0, ptr %3, align 8, !tbaa !22
  store i64 %1, ptr %4, align 8, !tbaa !24
  %5 = load ptr, ptr %3, align 8
  %6 = getelementptr inbounds nuw %"struct.std::_Vector_base", ptr %5, i32 0, i32 0
  %7 = getelementptr inbounds nuw %"struct.std::_Vector_base<Yosys::RTLIL::State, std::allocator<Yosys::RTLIL::State>>::_Vector_impl_data", ptr %6, i32 0, i32 0
  %8 = load ptr, ptr %7, align 8, !tbaa !26
  %9 = load i64, ptr %4, align 8, !tbaa !24
  %10 = getelementptr inbounds nuw i8, ptr %8, i64 %9
  ret ptr %10
}

; Function Attrs: inlinehint mustprogress nounwind uwtable
define linkonce_odr noundef nonnull align 4 dereferenceable(4) ptr @_ZSt3maxIiERKT_S2_S2_(ptr noundef nonnull align 4 dereferenceable(4) %0, ptr noundef nonnull align 4 dereferenceable(4) %1) #7 comdat {
  %3 = alloca ptr, align 8
  %4 = alloca ptr, align 8
  %5 = alloca ptr, align 8
  store ptr %0, ptr %4, align 8, !tbaa !33
  store ptr %1, ptr %5, align 8, !tbaa !33
  %6 = load ptr, ptr %4, align 8, !tbaa !33
  %7 = load i32, ptr %6, align 4, !tbaa !13
  %8 = load ptr, ptr %5, align 8, !tbaa !33
  %9 = load i32, ptr %8, align 4, !tbaa !13
  %10 = icmp slt i32 %7, %9
  br i1 %10, label %11, label %13

11:                                               ; preds = %2
  %12 = load ptr, ptr %5, align 8, !tbaa !33
  store ptr %12, ptr %3, align 8
  br label %15

13:                                               ; preds = %2
  %14 = load ptr, ptr %4, align 8, !tbaa !33
  store ptr %14, ptr %3, align 8
  br label %15

15:                                               ; preds = %13, %11
  %16 = load ptr, ptr %3, align 8
  ret ptr %16
}

; Function Attrs: mustprogress uwtable
define linkonce_odr noundef i32 @_ZN5Yosys7GetSizeINS_5RTLIL5ConstEEEiRKT_(ptr noundef nonnull align 8 dereferenceable(40) %0) #4 comdat {
  %2 = alloca ptr, align 8
  store ptr %0, ptr %2, align 8, !tbaa !6
  %3 = load ptr, ptr %2, align 8, !tbaa !6
  %4 = call noundef i32 @_ZNK5Yosys5RTLIL5Const4sizeEv(ptr noundef nonnull align 8 dereferenceable(40) %3)
  ret i32 %4
}

; Function Attrs: mustprogress uwtable
define internal void @_ZN5YosysL13logic_wrapperEPFNS_5RTLIL5StateES1_S1_ENS0_5ConstES4_bbi(ptr dead_on_unwind noalias writable sret(%"struct.Yosys::RTLIL::Const") align 8 %0, ptr noundef %1, ptr noundef %2, ptr noundef %3, i1 noundef zeroext %4, i1 noundef zeroext %5, i32 noundef %6) #4 personality ptr @__gxx_personality_v0 {
  %8 = alloca ptr, align 8
  %9 = alloca ptr, align 8
  %10 = alloca ptr, align 8
  %11 = alloca ptr, align 8
  %12 = alloca i8, align 1
  %13 = alloca i8, align 1
  %14 = alloca i32, align 4
  %15 = alloca i32, align 4
  %16 = alloca i32, align 4
  %17 = alloca i1, align 1
  %18 = alloca i32, align 4
  %19 = alloca i8, align 1
  %20 = alloca ptr, align 8
  %21 = alloca i32, align 4
  %22 = alloca i8, align 1
  store ptr %0, ptr %8, align 8
  store ptr %1, ptr %9, align 8, !tbaa !28
  store ptr %2, ptr %10, align 8, !tbaa !6
  store ptr %3, ptr %11, align 8, !tbaa !6
  %23 = zext i1 %4 to i8
  store i8 %23, ptr %12, align 1, !tbaa !11
  %24 = zext i1 %5 to i8
  store i8 %24, ptr %13, align 1, !tbaa !11
  store i32 %6, ptr %14, align 4, !tbaa !13
  %25 = load i32, ptr %14, align 4, !tbaa !13
  %26 = icmp slt i32 %25, 0
  br i1 %26, label %27, label %32

27:                                               ; preds = %7
  call void @llvm.lifetime.start.p0(i64 4, ptr %15) #3
  %28 = call noundef i32 @_ZN5Yosys7GetSizeINS_5RTLIL5ConstEEEiRKT_(ptr noundef nonnull align 8 dereferenceable(40) %2)
  store i32 %28, ptr %15, align 4, !tbaa !13
  call void @llvm.lifetime.start.p0(i64 4, ptr %16) #3
  %29 = call noundef i32 @_ZN5Yosys7GetSizeINS_5RTLIL5ConstEEEiRKT_(ptr noundef nonnull align 8 dereferenceable(40) %3)
  store i32 %29, ptr %16, align 4, !tbaa !13
  %30 = call noundef nonnull align 4 dereferenceable(4) ptr @_ZSt3maxIiERKT_S2_S2_(ptr noundef nonnull align 4 dereferenceable(4) %15, ptr noundef nonnull align 4 dereferenceable(4) %16)
  %31 = load i32, ptr %30, align 4, !tbaa !13
  store i32 %31, ptr %14, align 4, !tbaa !13
  call void @llvm.lifetime.end.p0(i64 4, ptr %16) #3
  call void @llvm.lifetime.end.p0(i64 4, ptr %15) #3
  br label %32

32:                                               ; preds = %27, %7
  %33 = load i32, ptr %14, align 4, !tbaa !13
  %34 = load i8, ptr %12, align 1, !tbaa !11, !range !15, !noundef !16
  %35 = trunc i8 %34 to i1
  call void @_ZN5YosysL9extend_u0ERNS_5RTLIL5ConstEib(ptr noundef nonnull align 8 dereferenceable(40) %2, i32 noundef %33, i1 noundef zeroext %35)
  %36 = load i32, ptr %14, align 4, !tbaa !13
  %37 = load i8, ptr %13, align 1, !tbaa !11, !range !15, !noundef !16
  %38 = trunc i8 %37 to i1
  call void @_ZN5YosysL9extend_u0ERNS_5RTLIL5ConstEib(ptr noundef nonnull align 8 dereferenceable(40) %3, i32 noundef %36, i1 noundef zeroext %38)
  store i1 false, ptr %17, align 1
  %39 = load i32, ptr %14, align 4, !tbaa !13
  call void @_ZN5Yosys5RTLIL5ConstC1ENS0_5StateEi(ptr noundef nonnull align 8 dereferenceable(40) %0, i8 noundef zeroext 2, i32 noundef %39)
  call void @llvm.lifetime.start.p0(i64 4, ptr %18) #3
  store i32 0, ptr %18, align 4, !tbaa !13
  br label %40

40:                                               ; preds = %84, %32
  %41 = load i32, ptr %18, align 4, !tbaa !13
  %42 = load i32, ptr %14, align 4, !tbaa !13
  %43 = icmp slt i32 %41, %42
  br i1 %43, label %45, label %44

44:                                               ; preds = %40
  call void @llvm.lifetime.end.p0(i64 4, ptr %18) #3
  br label %96

45:                                               ; preds = %40
  call void @llvm.lifetime.start.p0(i64 1, ptr %19) #3
  %46 = load i32, ptr %18, align 4, !tbaa !13
  %47 = invoke noundef i32 @_ZN5Yosys7GetSizeINS_5RTLIL5ConstEEEiRKT_(ptr noundef nonnull align 8 dereferenceable(40) %2)
          to label %48 unwind label %87

48:                                               ; preds = %45
  %49 = icmp slt i32 %46, %47
  br i1 %49, label %50, label %57

50:                                               ; preds = %48
  %51 = invoke noundef nonnull align 8 dereferenceable(24) ptr @_ZN5Yosys5RTLIL5Const4bitsEv(ptr noundef nonnull align 8 dereferenceable(40) %2)
          to label %52 unwind label %87

52:                                               ; preds = %50
  %53 = load i32, ptr %18, align 4, !tbaa !13
  %54 = sext i32 %53 to i64
  %55 = call noundef nonnull align 1 dereferenceable(1) ptr @_ZNSt6vectorIN5Yosys5RTLIL5StateESaIS2_EEixEm(ptr noundef nonnull align 8 dereferenceable(24) %51, i64 noundef %54) #3
  %56 = load i8, ptr %55, align 1, !tbaa !17
  br label %58

57:                                               ; preds = %48
  br label %58

58:                                               ; preds = %57, %52
  %59 = phi i8 [ %56, %52 ], [ 0, %57 ]
  store i8 %59, ptr %19, align 1, !tbaa !17
  call void @llvm.lifetime.start.p0(i64 1, ptr %22) #3
  %60 = load i32, ptr %18, align 4, !tbaa !13
  %61 = invoke noundef i32 @_ZN5Yosys7GetSizeINS_5RTLIL5ConstEEEiRKT_(ptr noundef nonnull align 8 dereferenceable(40) %3)
          to label %62 unwind label %91

62:                                               ; preds = %58
  %63 = icmp slt i32 %60, %61
  br i1 %63, label %64, label %71

64:                                               ; preds = %62
  %65 = invoke noundef nonnull align 8 dereferenceable(24) ptr @_ZN5Yosys5RTLIL5Const4bitsEv(ptr noundef nonnull align 8 dereferenceable(40) %3)
          to label %66 unwind label %91

66:                                               ; preds = %64
  %67 = load i32, ptr %18, align 4, !tbaa !13
  %68 = sext i32 %67 to i64
  %69 = call noundef nonnull align 1 dereferenceable(1) ptr @_ZNSt6vectorIN5Yosys5RTLIL5StateESaIS2_EEixEm(ptr noundef nonnull align 8 dereferenceable(24) %65, i64 noundef %68) #3
  %70 = load i8, ptr %69, align 1, !tbaa !17
  br label %72

71:                                               ; preds = %62
  br label %72

72:                                               ; preds = %71, %66
  %73 = phi i8 [ %70, %66 ], [ 0, %71 ]
  store i8 %73, ptr %22, align 1, !tbaa !17
  %74 = load ptr, ptr %9, align 8, !tbaa !28
  %75 = load i8, ptr %19, align 1, !tbaa !17
  %76 = load i8, ptr %22, align 1, !tbaa !17
  %77 = invoke noundef zeroext i8 %74(i8 noundef zeroext %75, i8 noundef zeroext %76)
          to label %78 unwind label %91

78:                                               ; preds = %72
  %79 = invoke noundef nonnull align 8 dereferenceable(24) ptr @_ZN5Yosys5RTLIL5Const4bitsEv(ptr noundef nonnull align 8 dereferenceable(40) %0)
          to label %80 unwind label %91

80:                                               ; preds = %78
  %81 = load i32, ptr %18, align 4, !tbaa !13
  %82 = sext i32 %81 to i64
  %83 = call noundef nonnull align 1 dereferenceable(1) ptr @_ZNSt6vectorIN5Yosys5RTLIL5StateESaIS2_EEixEm(ptr noundef nonnull align 8 dereferenceable(24) %79, i64 noundef %82) #3
  store i8 %77, ptr %83, align 1, !tbaa !17
  call void @llvm.lifetime.end.p0(i64 1, ptr %22) #3
  call void @llvm.lifetime.end.p0(i64 1, ptr %19) #3
  br label %84

84:                                               ; preds = %80
  %85 = load i32, ptr %18, align 4, !tbaa !13
  %86 = add nsw i32 %85, 1
  store i32 %86, ptr %18, align 4, !tbaa !13
  br label %40, !llvm.loop !29

87:                                               ; preds = %50, %45
  %88 = landingpad { ptr, i32 }
          cleanup
  %89 = extractvalue { ptr, i32 } %88, 0
  store ptr %89, ptr %20, align 8
  %90 = extractvalue { ptr, i32 } %88, 1
  store i32 %90, ptr %21, align 4
  br label %95

91:                                               ; preds = %78, %72, %64, %58
  %92 = landingpad { ptr, i32 }
          cleanup
  %93 = extractvalue { ptr, i32 } %92, 0
  store ptr %93, ptr %20, align 8
  %94 = extractvalue { ptr, i32 } %92, 1
  store i32 %94, ptr %21, align 4
  call void @llvm.lifetime.end.p0(i64 1, ptr %22) #3
  br label %95

95:                                               ; preds = %91, %87
  call void @llvm.lifetime.end.p0(i64 1, ptr %19) #3
  call void @llvm.lifetime.end.p0(i64 4, ptr %18) #3
  call void @_ZN5Yosys5RTLIL5ConstD1Ev(ptr noundef nonnull align 8 dereferenceable(40) %0) #3
  br label %100

96:                                               ; preds = %44
  store i1 true, ptr %17, align 1
  %97 = load i1, ptr %17, align 1
  br i1 %97, label %99, label %98

98:                                               ; preds = %96
  call void @_ZN5Yosys5RTLIL5ConstD1Ev(ptr noundef nonnull align 8 dereferenceable(40) %0) #3
  br label %99

99:                                               ; preds = %98, %96
  ret void

100:                                              ; preds = %95
  %101 = load ptr, ptr %20, align 8
  %102 = load i32, ptr %21, align 4
  %103 = insertvalue { ptr, i32 } poison, ptr %101, 0
  %104 = insertvalue { ptr, i32 } %103, i32 %102, 1
  resume { ptr, i32 } %104
}