; Function Attrs: mustprogress uwtable
define internal fastcc void @_ZN5YosysL13logic_wrapperEPFNS_5RTLIL5StateES1_S1_ENS0_5ConstES4_bbi(ptr dead_on_unwind noalias writable align 8 %0, ptr noundef readonly captures(none) %1, ptr noundef nonnull %2, ptr noundef nonnull %3, i1 noundef zeroext %4, i1 noundef zeroext %5, i32 noundef %6) unnamed_addr #3 personality ptr @__gxx_personality_v0 {
  %8 = icmp slt i32 %6, 0
  br i1 %8, label %9, label %12

9:                                                ; preds = %7
  %10 = tail call noundef i32 @_ZNK5Yosys5RTLIL5Const4sizeEv(ptr noundef nonnull align 8 dereferenceable(40) %2)
  %11 = tail call noundef i32 @_ZNK5Yosys5RTLIL5Const4sizeEv(ptr noundef nonnull align 8 dereferenceable(40) %3)
  %.sroa.speculated = tail call i32 @llvm.smax.i32(i32 %10, i32 %11)
  br label %12

12:                                               ; preds = %9, %7
  %.0 = phi i32 [ %.sroa.speculated, %9 ], [ %6, %7 ]
  tail call fastcc void @_ZN5YosysL9extend_u0ERNS_5RTLIL5ConstEib(ptr noundef nonnull align 8 dereferenceable(40) %2, i32 noundef %.0, i1 noundef zeroext %4)
  tail call fastcc void @_ZN5YosysL9extend_u0ERNS_5RTLIL5ConstEib(ptr noundef nonnull align 8 dereferenceable(40) %3, i32 noundef %.0, i1 noundef zeroext %5)
  tail call void @_ZN5Yosys5RTLIL5ConstC1ENS0_5StateEi(ptr noundef nonnull align 8 dereferenceable(40) %0, i8 noundef zeroext 2, i32 noundef %.0)
  %13 = icmp sgt i32 %.0, 0
  br i1 %13, label %.lr.ph.preheader, label %._crit_edge

.lr.ph.preheader:                                 ; preds = %12
  %wide.trip.count = zext nneg i32 %.0 to i64
  br label %.lr.ph

.lr.ph:                                           ; preds = %.lr.ph.preheader, %39
  %indvars.iv = phi i64 [ 0, %.lr.ph.preheader ], [ %indvars.iv.next, %39 ]
  %14 = invoke noundef i32 @_ZNK5Yosys5RTLIL5Const4sizeEv(ptr noundef nonnull align 8 dereferenceable(40) %2)
          to label %_ZN5Yosys7GetSizeINS_5RTLIL5ConstEEEiRKT_.exit unwind label %42

_ZN5Yosys7GetSizeINS_5RTLIL5ConstEEEiRKT_.exit:   ; preds = %.lr.ph
  %15 = sext i32 %14 to i64
  %16 = icmp slt i64 %indvars.iv, %15
  br i1 %16, label %17, label %23

17:                                               ; preds = %_ZN5Yosys7GetSizeINS_5RTLIL5ConstEEEiRKT_.exit
  %18 = invoke noundef nonnull align 8 dereferenceable(24) ptr @_ZN5Yosys5RTLIL5Const4bitsEv(ptr noundef nonnull align 8 dereferenceable(40) %2)
          to label %19 unwind label %42

19:                                               ; preds = %17
  %20 = load ptr, ptr %18, align 8, !tbaa !6
  %21 = getelementptr inbounds nuw i8, ptr %20, i64 %indvars.iv
  %22 = load i8, ptr %21, align 1, !tbaa !11
  br label %23

23:                                               ; preds = %_ZN5Yosys7GetSizeINS_5RTLIL5ConstEEEiRKT_.exit, %19
  %24 = phi i8 [ %22, %19 ], [ 0, %_ZN5Yosys7GetSizeINS_5RTLIL5ConstEEEiRKT_.exit ]
  %25 = invoke noundef i32 @_ZNK5Yosys5RTLIL5Const4sizeEv(ptr noundef nonnull align 8 dereferenceable(40) %3)
          to label %_ZN5Yosys7GetSizeINS_5RTLIL5ConstEEEiRKT_.exit24 unwind label %44

_ZN5Yosys7GetSizeINS_5RTLIL5ConstEEEiRKT_.exit24: ; preds = %23
  %26 = sext i32 %25 to i64
  %27 = icmp slt i64 %indvars.iv, %26
  br i1 %27, label %28, label %34

28:                                               ; preds = %_ZN5Yosys7GetSizeINS_5RTLIL5ConstEEEiRKT_.exit24
  %29 = invoke noundef nonnull align 8 dereferenceable(24) ptr @_ZN5Yosys5RTLIL5Const4bitsEv(ptr noundef nonnull align 8 dereferenceable(40) %3)
          to label %30 unwind label %44

30:                                               ; preds = %28
  %31 = load ptr, ptr %29, align 8, !tbaa !6
  %32 = getelementptr inbounds nuw i8, ptr %31, i64 %indvars.iv
  %33 = load i8, ptr %32, align 1, !tbaa !11
  br label %34

34:                                               ; preds = %_ZN5Yosys7GetSizeINS_5RTLIL5ConstEEEiRKT_.exit24, %30
  %35 = phi i8 [ %33, %30 ], [ 0, %_ZN5Yosys7GetSizeINS_5RTLIL5ConstEEEiRKT_.exit24 ]
  %36 = invoke noundef zeroext i8 %1(i8 noundef zeroext %24, i8 noundef zeroext %35)
          to label %37 unwind label %44, !callees !18

37:                                               ; preds = %34
  %38 = invoke noundef nonnull align 8 dereferenceable(24) ptr @_ZN5Yosys5RTLIL5Const4bitsEv(ptr noundef nonnull align 8 dereferenceable(40) %0)
          to label %39 unwind label %44

39:                                               ; preds = %37
  %40 = load ptr, ptr %38, align 8, !tbaa !6
  %41 = getelementptr inbounds nuw i8, ptr %40, i64 %indvars.iv
  store i8 %36, ptr %41, align 1, !tbaa !11
  %indvars.iv.next = add nuw nsw i64 %indvars.iv, 1
  %exitcond.not = icmp eq i64 %indvars.iv.next, %wide.trip.count
  br i1 %exitcond.not, label %._crit_edge, label %.lr.ph, !llvm.loop !19

42:                                               ; preds = %.lr.ph, %17
  %43 = landingpad { ptr, i32 }
          cleanup
  br label %46

44:                                               ; preds = %23, %37, %34, %28
  %45 = landingpad { ptr, i32 }
          cleanup
  br label %46

46:                                               ; preds = %44, %42
  %.pn = phi { ptr, i32 } [ %45, %44 ], [ %43, %42 ]
  tail call void @_ZN5Yosys5RTLIL5ConstD1Ev(ptr noundef nonnull align 8 dereferenceable(40) %0) #19
  resume { ptr, i32 } %.pn

._crit_edge:                                      ; preds = %39, %12
  ret void
}